target datalayout = "e-m:e-p270:32:32-p271:32:32-p272:64:64-i64:64-i128:128-f80:128-n8:16:32:64-S128"
target triple = "x86_64-pc-linux-gnu"

; Function Attrs: mustprogress nounwind uwtable
define linkonce_odr hidden noundef i32 @_ZN4llvm13to_underlyingINS_11FPClassTestEEENSt15underlying_typeIT_E4typeES3_(i32 noundef %0) #0 comdat {
  %2 = alloca i32, align 4
  store i32 %0, ptr %2, align 4
  %3 = load i32, ptr %2, align 4
  ret i32 %3
}

; Function Attrs: mustprogress nounwind uwtable
define linkonce_odr hidden noundef i32 @_ZN4llvm17BitmaskEnumDetailorINS_11FPClassTestEvEET_S3_S3_(i32 noundef %0, i32 noundef %1) #0 comdat {
  %3 = alloca i32, align 4
  %4 = alloca i32, align 4
  store i32 %0, ptr %3, align 4
  store i32 %1, ptr %4, align 4
  %5 = load i32, ptr %3, align 4
  %6 = call noundef i32 @_ZN4llvm17BitmaskEnumDetail10UnderlyingINS_11FPClassTestEEENSt15underlying_typeIT_E4typeES4_(i32 noundef %5)
  %7 = load i32, ptr %4, align 4
  %8 = call noundef i32 @_ZN4llvm17BitmaskEnumDetail10UnderlyingINS_11FPClassTestEEENSt15underlying_typeIT_E4typeES4_(i32 noundef %7)
  %9 = or i32 %6, %8
  ret i32 %9
}

; Function Attrs: mustprogress nounwind uwtable
define linkonce_odr hidden noundef i32 @_ZN4llvm17BitmaskEnumDetail10UnderlyingINS_11FPClassTestEEENSt15underlying_typeIT_E4typeES4_(i32 noundef %0) #0 comdat {
  %2 = alloca i32, align 4
  %3 = alloca i32, align 4
  store i32 %0, ptr %2, align 4
  %4 = load i32, ptr %2, align 4
  %5 = call noundef i32 @_ZN4llvm13to_underlyingINS_11FPClassTestEEENSt15underlying_typeIT_E4typeES3_(i32 noundef %4)
  store i32 %5, ptr %3, align 4
  %6 = load i32, ptr %3, align 4
  ret i32 %6
}

; Function Attrs: mustprogress nounwind uwtable
define linkonce_odr noundef nonnull align 4 dereferenceable(4) ptr @_ZN4llvm17BitmaskEnumDetailoRINS_11FPClassTestEvEERT_S4_S3_(ptr noundef nonnull align 4 dereferenceable(4) %0, i32 noundef %1) #0 comdat {
  %3 = alloca ptr, align 8
  %4 = alloca i32, align 4
  store ptr %0, ptr %3, align 8
  store i32 %1, ptr %4, align 4
  %5 = load ptr, ptr %3, align 8
  %6 = load i32, ptr %5, align 4
  %7 = load i32, ptr %4, align 4
  %8 = call noundef i32 @_ZN4llvm17BitmaskEnumDetailorINS_11FPClassTestEvEET_S3_S3_(i32 noundef %6, i32 noundef %7)
  %9 = load ptr, ptr %3, align 8
  store i32 %8, ptr %9, align 4
  %10 = load ptr, ptr %3, align 8
  ret ptr %10
}

; Function Attrs: mustprogress nounwind uwtable
define linkonce_odr hidden noundef i32 @_ZN4llvm17BitmaskEnumDetailanINS_11FPClassTestEvEET_S3_S3_(i32 noundef %0, i32 noundef %1) #0 comdat {
  %3 = alloca i32, align 4
  %4 = alloca i32, align 4
  store i32 %0, ptr %3, align 4
  store i32 %1, ptr %4, align 4
  %5 = load i32, ptr %3, align 4
  %6 = call noundef i32 @_ZN4llvm17BitmaskEnumDetail10UnderlyingINS_11FPClassTestEEENSt15underlying_typeIT_E4typeES4_(i32 noundef %5)
  %7 = load i32, ptr %4, align 4
  %8 = call noundef i32 @_ZN4llvm17BitmaskEnumDetail10UnderlyingINS_11FPClassTestEEENSt15underlying_typeIT_E4typeES4_(i32 noundef %7)
  %9 = and i32 %6, %8
  ret i32 %9
}

; Function Attrs: mustprogress nounwind uwtable
define dso_local noundef i32 @_ZN4llvm12inverse_fabsENS_11FPClassTestE(i32 noundef %0) #0 {
  %2 = alloca i32, align 4
  %3 = alloca i32, align 4
  store i32 %0, ptr %2, align 4
  %4 = load i32, ptr %2, align 4
  %5 = call noundef i32 @_ZN4llvm17BitmaskEnumDetailanINS_11FPClassTestEvEET_S3_S3_(i32 noundef %4, i32 noundef 3)
  store i32 %5, ptr %3, align 4
  %6 = load i32, ptr %2, align 4
  %7 = call noundef i32 @_ZN4llvm17BitmaskEnumDetailanINS_11FPClassTestEvEET_S3_S3_(i32 noundef %6, i32 noundef 64)
  %8 = icmp ne i32 %7, 0
  br i1 %8, label %9, label %11

9:                                                ; preds = %1
  %10 = call noundef nonnull align 4 dereferenceable(4) ptr @_ZN4llvm17BitmaskEnumDetailoRINS_11FPClassTestEvEERT_S4_S3_(ptr noundef nonnull align 4 dereferenceable(4) %3, i32 noundef 96)
  br label %11

11:                                               ; preds = %9, %1
  %12 = load i32, ptr %2, align 4
  %13 = call noundef i32 @_ZN4llvm17BitmaskEnumDetailanINS_11FPClassTestEvEET_S3_S3_(i32 noundef %12, i32 noundef 128)
  %14 = icmp ne i32 %13, 0
  br i1 %14, label %15, label %17

15:                                               ; preds = %11
  %16 = call noundef nonnull align 4 dereferenceable(4) ptr @_ZN4llvm17BitmaskEnumDetailoRINS_11FPClassTestEvEERT_S4_S3_(ptr noundef nonnull align 4 dereferenceable(4) %3, i32 noundef 144)
  br label %17

17:                                               ; preds = %15, %11
  %18 = load i32, ptr %2, align 4
  %19 = call noundef i32 @_ZN4llvm17BitmaskEnumDetailanINS_11FPClassTestEvEET_S3_S3_(i32 noundef %18, i32 noundef 256)
  %20 = icmp ne i32 %19, 0
  br i1 %20, label %21, label %23

21:                                               ; preds = %17
  %22 = call noundef nonnull align 4 dereferenceable(4) ptr @_ZN4llvm17BitmaskEnumDetailoRINS_11FPClassTestEvEERT_S4_S3_(ptr noundef nonnull align 4 dereferenceable(4) %3, i32 noundef 264)
  br label %23

23:                                               ; preds = %21, %17
  %24 = load i32, ptr %2, align 4
  %25 = call noundef i32 @_ZN4llvm17BitmaskEnumDetailanINS_11FPClassTestEvEET_S3_S3_(i32 noundef %24, i32 noundef 512)
  %26 = icmp ne i32 %25, 0
  br i1 %26, label %27, label %29

27:                                               ; preds = %23
  %28 = call noundef nonnull align 4 dereferenceable(4) ptr @_ZN4llvm17BitmaskEnumDetailoRINS_11FPClassTestEvEERT_S4_S3_(ptr noundef nonnull align 4 dereferenceable(4) %3, i32 noundef 516)
  br label %29

29:                                               ; preds = %27, %23
  %30 = load i32, ptr %3, align 4
  ret i32 %30
}